Certificate:
    Data:
        Version: 3 (0x2)
        Serial Number: 17 (0x11)
    Signature Algorithm: sha256WithRSAEncryption
        Issuer: C=us, ST=ca, L=Los Angeles, O=NSL-ISI, Limited, OU=NSL-ISI, CN=NSL-ISI/emailAddress=satyaman@usc.edu
        Validity
            Not Before: Oct  6 00:28:29 2015 GMT
            Not After : Jul  2 00:28:29 2018 GMT
        Subject: C=US, ST=California, L=Los Angeles, O=NSL, CN=satyaman@usc.edu
        Subject Public Key Info:
            Public Key Algorithm: rsaEncryption
                Public-Key: (2048 bit)
                Modulus:
                    00:c4:04:b8:26:18:0a:e4:23:96:f2:a9:8b:37:42:
                    6b:b4:f7:b3:17:96:13:fe:30:d7:ae:cf:e5:de:d3:
                    ea:7c:b5:8b:38:64:de:5d:e6:08:45:de:4d:89:ae:
                    8d:cc:03:7e:29:e8:cb:2d:f0:09:26:22:52:42:34:
                    51:90:cb:b0:16:3c:a6:03:95:c8:2e:b2:65:9e:ca:
                    21:d7:27:62:91:60:ea:81:6d:e0:ed:38:61:df:29:
                    57:89:5a:20:e8:80:97:30:d9:1e:10:a0:d5:6f:fd:
                    70:5a:ee:bc:ca:ee:d8:c5:87:d5:c3:0b:30:cc:43:
                    ed:42:3e:68:21:29:57:33:64:37:0a:08:21:57:be:
                    65:05:b5:2d:fa:95:25:d6:98:7e:b6:e9:45:37:d9:
                    2f:be:16:5b:6e:77:02:64:7e:12:89:a1:ef:4a:b7:
                    66:a3:7e:5a:91:8f:a1:59:6e:a2:38:90:82:90:36:
                    74:c6:3b:91:56:08:ff:0a:e1:4e:dd:55:77:70:5e:
                    b5:cc:ca:32:26:72:fa:41:51:74:f1:49:18:5d:46:
                    36:0c:e4:6b:69:b8:61:0c:fc:46:e1:5c:9e:1f:42:
                    0b:fa:bb:bd:77:85:6a:35:19:a0:27:cb:86:d3:90:
                    e8:1c:ef:75:63:4a:eb:b4:7a:6f:11:e8:46:74:8b:
                    2b:91
                Exponent: 65537 (0x10001)
        X509v3 extensions:
            X509v3 Subject Key Identifier: 
                5D:2A:E7:F1:24:D5:D6:07:56:30:94:FF:67:3A:8F:53:14:83:5A:D4
            X509v3 Authority Key Identifier: 
                keyid:61:69:C3:FF:B7:A7:96:FD:82:E1:5F:31:16:FF:CF:ED:A6:78:44:7F

            X509v3 Basic Constraints: 
                CA:FALSE
            X509v3 Key Usage: 
                Digital Signature, Key Encipherment
            Netscape Comment: 
                AS:11542
            1.2.3.4: critical
                ..
    Signature Algorithm: sha256WithRSAEncryption
         2b:72:b2:0a:b7:17:42:7e:2a:1d:b0:9f:86:ae:68:1c:9d:ff:
         15:51:3c:df:94:80:b4:21:86:61:a5:56:be:d0:f6:26:3e:4b:
         4e:a6:31:21:93:f3:97:ad:42:5d:8d:ff:2c:5a:94:25:19:e8:
         1e:01:8b:a5:e1:46:0f:90:91:06:2f:b7:bb:70:44:c7:fb:14:
         31:8c:9c:fc:4f:68:44:05:95:d7:35:17:94:dc:61:13:47:69:
         d3:75:8b:95:74:34:b1:49:f0:34:79:86:de:7a:a5:6e:06:1e:
         ad:7a:72:ec:fe:97:95:97:1e:58:23:24:d9:0a:2c:69:66:a0:
         b8:a3:58:4e:52:86:09:bb:af:4d:78:f2:6b:28:8a:b6:e1:fe:
         00:45:3c:f2:c9:59:db:ed:2b:a6:ea:26:23:9b:47:c1:84:83:
         6f:46:4d:51:a9:04:50:a5:46:1c:a1:e4:e8:c6:b7:93:59:c9:
         2e:12:12:60:34:cf:5b:fc:e4:cc:3d:50:c2:d6:5b:28:14:80:
         7f:c4:6d:82:0e:5b:65:31:e0:37:56:ba:5d:20:17:20:0a:c0:
         2f:c3:25:38:77:ff:dc:b7:6d:8e:9e:83:5b:e3:7e:19:be:76:
         e2:16:1e:1c:60:e0:a0:28:ca:4c:3d:c7:20:6b:ab:af:56:e1:
         f9:aa:dd:f8:71:0e:d5:93:85:a6:44:c7:3c:e8:f3:de:a5:f3:
         1c:de:3c:1e:38:d3:dd:19:1a:c4:26:1a:62:79:23:55:20:c2:
         40:55:ab:f2:b0:63:a3:f5:b7:8e:7d:ba:e7:d1:2b:6c:c6:fc:
         eb:ca:25:cf:7a:1f:25:38:58:2b:e5:ee:9c:dc:96:f2:dc:b0:
         a1:e5:04:25:6d:c7:64:8d:1d:c4:50:1a:74:59:cd:72:40:e5:
         ea:8a:41:3a:c0:b3:ad:4d:ec:ae:9d:b9:84:fb:20:17:30:81:
         f3:fe:74:b6:87:6f:c3:c0:68:7e:93:d8:21:c4:d2:23:8a:e0:
         e7:bd:e0:80:3a:b5:19:bd:0b:dc:2d:00:26:fe:88:50:53:85:
         aa:cc:55:36:a7:04:3a:11:7e:12:8c:78:0c:40:76:71:38:44:
         d7:a4:09:e0:bc:83:b3:76:ba:32:ca:1b:f3:58:21:bd:62:d7:
         fd:56:3c:eb:63:4c:21:70:23:55:f8:e7:d6:45:e0:d5:0f:d0:
         9c:60:5f:bd:96:9b:d2:e5:a8:e7:99:69:dd:a5:ef:fe:43:d6:
         69:3d:ed:f9:7c:03:98:18:7f:cd:c1:b9:a6:dc:0f:97:49:9a:
         2f:67:43:c7:b5:9b:a7:b2:b6:ae:22:09:d7:6a:20:5a:56:3b:
         5d:48:9c:df:aa:5c:26:39
-----BEGIN CERTIFICATE-----
MIIE7zCCAtegAwIBAgIBETANBgkqhkiG9w0BAQsFADCBkDELMAkGA1UEBhMCdXMx
CzAJBgNVBAgMAmNhMRQwEgYDVQQHDAtMb3MgQW5nZWxlczEZMBcGA1UECgwQTlNM
LUlTSSwgTGltaXRlZDEQMA4GA1UECwwHTlNMLUlTSTEQMA4GA1UEAwwHTlNMLUlT
STEfMB0GCSqGSIb3DQEJARYQc2F0eWFtYW5AdXNjLmVkdTAeFw0xNTEwMDYwMDI4
MjlaFw0xODA3MDIwMDI4MjlaMGExCzAJBgNVBAYTAlVTMRMwEQYDVQQIDApDYWxp
Zm9ybmlhMRQwEgYDVQQHDAtMb3MgQW5nZWxlczEMMAoGA1UECgwDTlNMMRkwFwYD
VQQDDBBzYXR5YW1hbkB1c2MuZWR1MIIBIjANBgkqhkiG9w0BAQEFAAOCAQ8AMIIB
CgKCAQEAxAS4JhgK5COW8qmLN0JrtPezF5YT/jDXrs/l3tPqfLWLOGTeXeYIRd5N
ia6NzAN+KejLLfAJJiJSQjRRkMuwFjymA5XILrJlnsoh1ydikWDqgW3g7Thh3ylX
iVog6ICXMNkeEKDVb/1wWu68yu7YxYfVwwswzEPtQj5oISlXM2Q3CgghV75lBbUt
+pUl1ph+tulFN9kvvhZbbncCZH4SiaHvSrdmo35akY+hWW6iOJCCkDZ0xjuRVgj/
CuFO3VV3cF61zMoyJnL6QVF08UkYXUY2DORrabhhDPxG4VyeH0IL+ru9d4VqNRmg
J8uG05DoHO91Y0rrtHpvEehGdIsrkQIDAQABo4GBMH8wHQYDVR0OBBYEFF0q5/Ek
1dYHVjCU/2c6j1MUg1rUMB8GA1UdIwQYMBaAFGFpw/+3p5b9guFfMRb/z+2meER/
MAkGA1UdEwQCMAAwCwYDVR0PBAQDAgWgMBcGCWCGSAGG+EIBDQQKFghBUzoxMTU0
MjAMBgMqAwQBAf8EAgwAMA0GCSqGSIb3DQEBCwUAA4ICAQArcrIKtxdCfiodsJ+G
rmgcnf8VUTzflIC0IYZhpVa+0PYmPktOpjEhk/OXrUJdjf8sWpQlGegeAYul4UYP
kJEGL7e7cETH+xQxjJz8T2hEBZXXNReU3GETR2nTdYuVdDSxSfA0eYbeeqVuBh6t
enLs/peVlx5YIyTZCixpZqC4o1hOUoYJu69NePJrKIq24f4ARTzyyVnb7Sum6iYj
m0fBhINvRk1RqQRQpUYcoeToxreTWckuEhJgNM9b/OTMPVDC1lsoFIB/xG2CDltl
MeA3VrpdIBcgCsAvwyU4d//ct22OnoNb434ZvnbiFh4cYOCgKMpMPccga6uvVuH5
qt34cQ7Vk4WmRMc86PPepfMc3jweONPdGRrEJhpieSNVIMJAVavysGOj9beOfbrn
0StsxvzryiXPeh8lOFgr5e6c3Jby3LCh5QQlbcdkjR3EUBp0Wc1yQOXqikE6wLOt
TeyunbmE+yAXMIHz/nS2h2/DwGh+k9ghxNIjiuDnveCAOrUZvQvcLQAm/ohQU4Wq
zFU2pwQ6EX4SjHgMQHZxOETXpAngvIOzdroyyhvzWCG9Ytf9VjzrY0whcCNV+OfW
ReDVD9CcYF+9lpvS5ajnmWndpe/+Q9ZpPe35fAOYGH/Nwbmm3A+XSZovZ0PHtZun
srauIgnXaiBaVjtdSJzfqlwmOQ==
-----END CERTIFICATE-----
-----BEGIN CERTIFICATE-----
MIIGBTCCA+2gAwIBAgIJAI4qzNkBBRMWMA0GCSqGSIb3DQEBCwUAMIGQMQswCQYD
VQQGEwJ1czELMAkGA1UECAwCY2ExFDASBgNVBAcMC0xvcyBBbmdlbGVzMRkwFwYD
VQQKDBBOU0wtSVNJLCBMaW1pdGVkMRAwDgYDVQQLDAdOU0wtSVNJMRAwDgYDVQQD
DAdOU0wtSVNJMR8wHQYJKoZIhvcNAQkBFhBzYXR5YW1hbkB1c2MuZWR1MB4XDTE1
MTAwNjAwMjczNVoXDTE1MTEwNTAwMjczNVowgZAxCzAJBgNVBAYTAnVzMQswCQYD
VQQIDAJjYTEUMBIGA1UEBwwLTG9zIEFuZ2VsZXMxGTAXBgNVBAoMEE5TTC1JU0ks
IExpbWl0ZWQxEDAOBgNVBAsMB05TTC1JU0kxEDAOBgNVBAMMB05TTC1JU0kxHzAd
BgkqhkiG9w0BCQEWEHNhdHlhbWFuQHVzYy5lZHUwggIiMA0GCSqGSIb3DQEBAQUA
A4ICDwAwggIKAoICAQC5C/PnCKkKki2MBiBpun3J99c8BzHofHgmpEODCxrqri4/
F6HRqTThiOTD1PlIVVJ0nx3vK2H5F7++65D/FNsxSen9h0BEI9jgUVE8Uya0J9je
nTUfY8WC2oz2Y0X2SbmIzCGuYWK4qO1IVo11wrdmbXqU5Bf1pAAvXcpvqG+imxr5
jQCy2xeI1UfHVgp5WFqPqbr0B3AlfZxHLnNgglQReeNLqKPlKc2mQ4JWjNiFjfz7
oE/aqshFQe8rI0xVx+9YecAvl9ZcQfE0JKIHXc6gRxlfscvz+h9UqtcQNm6l9Gf7
AHZg+5XCh0GUbMc7UBodnduNvmDGKI2TAUWPB4H31Meod6lGGMuOComKMjgathIG
WFbtFzwdokPkmKsCHTpF3txNPAIUJrttf3o9DKtno9+APRnQY1Y1m8kZVFVOihWc
zcjM/RXKYYof5cHJ3Fo6TSa4Ej8Ke2AIg069I6HX+e49Vea2qrxgMt6khPuiFB2s
+4ooiqJEZ0dHyOwIMY2mKOGy2eWdV5C42bAMqqwh7iHM+u96G83Qi2VL6dQbQi1K
y+ZoBjWrOi4Q29Y9Z7kI6OqPlgEuavxVXFeaOg6dft9ryUHLB5Q8vLnuRMDfcDGT
rAKJCgAqSQ79gHyAedC+2itU1AJWBAV/P2wChW0ghVQTAg9QwTTUOjDnmgbVawID
AQABo2AwXjAdBgNVHQ4EFgQUYWnD/7enlv2C4V8xFv/P7aZ4RH8wHwYDVR0jBBgw
FoAUYWnD/7enlv2C4V8xFv/P7aZ4RH8wDwYDVR0TAQH/BAUwAwEB/zALBgNVHQ8E
BAMCAQYwDQYJKoZIhvcNAQELBQADggIBAENwUOYKotfRUk7BDivuE87VAtwjE4KU
mvtGGwjXvHWmMWn4bUtH/5B6ZOm4MlqcoI9m8t1GbVvtKm7TnHGG9C8VHA/KrUY1
zBgx58gcB0zsdH3ZdySqcpswXvO1sP1QAZUxRAVehtIv3GPe99khyexGW2tJI+f1
qUVm9W892d1HSIB6upJRjx2GU49Z0aaReg6D92TkvElRcj2N+e9n9AIKeEYg90kB
2aBs3pqdjQEN33+E3DRErW5so8yB1/jffu6C8nf/kceQQuFe9SZai+H58Up3nu4u
MNFvA+pNtvpPrZiaU4LhzotJaYqN1ckp7/ZUzNC7C/6BTlt8kofWAQvSOmeCO2mf
2bnKwlRDm08h4NhsiF+aHIslDZ9qJa4CGIbiVHJY5hxvo3UiS8zh4P1pRvpm4cap
Vaqifjo3jVWc9xDIqbuqjlZ4Auu1xloGtDZFJy2N+36AD/+7SiwLVeeUh299et4W
gj3Nj3JV+TFZ52p6gMEqoyLVnHFeDFz728Wnld5KmQgbJvNw+fUbURM8yy1gcXvQ
YVIB9RCJWGQqwza6/ky1BAgjLIFmJRREv9n5fOOGzQZ9ymgxcroDgf+2PQ4HwBTO
CKpU6Swka3hkwC2ZFW6sGA2SdrCDfcLhchcc6fwCoDyZbREQKQRAAAXcMkk3en0y
u96qTGICH82e
-----END CERTIFICATE-----
